Certificate:
    Data:
        Version: 3 (0x2)
        Serial Number:
            e7:cb:3c:e7:6e:a5:b1:54:b5:54:c7:84:4d:89:48:66
        Signature Algorithm: sha256WithRSAEncryption
        Issuer: CN=Easy-RSA CA
        Validity
            Not Before: Nov 17 08:16:51 2018 GMT
            Not After : Nov  1 08:16:51 2021 GMT
        Subject: CN=client1
        Subject Public Key Info:
            Public Key Algorithm: rsaEncryption
                RSA Public-Key: (2048 bit)
                Modulus:
                    00:9a:46:e8:28:0e:9c:63:29:90:c6:b7:39:79:c4:
                    ed:06:8a:96:b0:86:77:25:71:f4:63:4f:52:af:c2:
                    fe:21:6b:c6:df:d8:fd:a5:3d:1b:0f:91:f7:27:fe:
                    f9:cb:26:c0:5c:05:d9:b3:ec:2f:48:0f:88:29:16:
                    44:3e:ff:8f:7e:9d:9d:56:fb:64:83:79:52:fb:de:
                    55:c8:27:00:30:4a:a1:3b:c9:52:bd:ae:1e:92:14:
                    3f:8a:b9:12:83:26:31:dc:4b:c8:a0:11:5a:3c:6e:
                    2d:f7:4b:32:f4:ef:b5:e2:80:d6:ed:50:07:a7:0c:
                    0a:b7:76:8f:81:05:98:68:74:8a:9d:23:79:c3:4b:
                    ab:21:26:f9:f8:a7:d7:05:df:7b:d9:ae:b0:55:72:
                    69:7d:0b:48:62:bf:ce:79:f9:5d:27:7f:fa:3a:4e:
                    12:0a:4d:ce:65:61:b6:96:31:5e:1e:1d:a1:b4:8a:
                    07:3e:fa:bc:38:a6:a9:55:3a:7e:3c:5b:90:03:c5:
                    e9:2a:4a:73:b7:0b:c2:90:66:ad:0d:8b:08:0d:9b:
                    c5:ef:03:7a:ec:68:88:9f:88:25:fe:66:65:f7:9c:
                    fb:80:ab:a5:01:a3:cd:56:28:a9:31:2f:87:2a:19:
                    a4:13:ee:64:00:be:c7:61:f7:51:30:05:e1:4c:cc:
                    dc:e1
                Exponent: 65537 (0x10001)
        X509v3 extensions:
            X509v3 Basic Constraints: 
                CA:FALSE
            X509v3 Subject Key Identifier: 
                FD:52:B4:8A:3B:27:A9:74:90:1E:8E:2D:DF:A9:D8:0C:FD:A4:0F:A4
            X509v3 Authority Key Identifier: 
                keyid:11:46:EF:C1:62:85:BC:BF:90:5E:88:63:3F:9E:E2:54:09:01:DA:CA
                DirName:/CN=Easy-RSA CA
                serial:48:31:69:F8:2C:8C:D6:81:DF:B6:17:3F:C1:A5:47:D0:5F:A2:1B:B8

            X509v3 Extended Key Usage: 
                TLS Web Client Authentication
            X509v3 Key Usage: 
                Digital Signature
    Signature Algorithm: sha256WithRSAEncryption
         01:15:01:73:81:50:d5:79:b5:77:58:a4:a0:ed:22:2a:67:62:
         ce:46:0f:6e:39:7b:58:8e:74:f5:a1:db:52:af:b2:77:a3:66:
         54:1d:6e:3d:b2:70:a3:8d:89:a5:8c:5c:e9:dd:b7:36:c6:d0:
         51:cc:15:3d:7c:d7:c5:da:02:04:00:12:73:ea:49:ef:3f:d5:
         bf:10:fc:74:5d:3b:f7:d9:07:9d:83:10:b9:a6:03:08:a3:9a:
         1f:e1:cf:9a:b7:32:50:95:5e:01:a4:bc:64:e3:9c:dc:55:7b:
         8c:d5:7e:e9:82:63:a3:f1:67:c4:cc:61:ab:78:cb:2d:77:ec:
         3d:f1:e1:4b:60:65:da:43:e7:70:12:04:e4:aa:c9:1a:13:24:
         02:54:67:65:6c:10:bc:eb:73:19:df:f9:ed:3f:88:a7:82:ab:
         06:5d:9b:39:cf:5c:ab:7f:37:fb:63:98:84:f8:76:61:4e:b8:
         36:0b:24:72:9c:84:ec:92:61:b9:a7:9e:ea:ad:74:58:3a:01:
         af:2d:33:93:51:26:3b:05:8e:28:41:d3:ee:42:e7:73:f0:e1:
         e6:35:cb:7b:eb:f5:b0:22:09:53:4e:e8:63:b6:8c:f3:bb:a0:
         29:7b:d6:bd:a0:9b:ba:d8:24:97:fa:02:b2:0e:8a:06:88:fe:
         c6:84:57:a7
-----BEGIN CERTIFICATE-----
MIIDVjCCAj6gAwIBAgIRAOfLPOdupbFUtVTHhE2JSGYwDQYJKoZIhvcNAQELBQAw
FjEUMBIGA1UEAwwLRWFzeS1SU0EgQ0EwHhcNMTgxMTE3MDgxNjUxWhcNMjExMTAx
MDgxNjUxWjASMRAwDgYDVQQDDAdjbGllbnQxMIIBIjANBgkqhkiG9w0BAQEFAAOC
AQ8AMIIBCgKCAQEAmkboKA6cYymQxrc5ecTtBoqWsIZ3JXH0Y09Sr8L+IWvG39j9
pT0bD5H3J/75yybAXAXZs+wvSA+IKRZEPv+Pfp2dVvtkg3lS+95VyCcAMEqhO8lS
va4ekhQ/irkSgyYx3EvIoBFaPG4t90sy9O+14oDW7VAHpwwKt3aPgQWYaHSKnSN5
w0urISb5+KfXBd972a6wVXJpfQtIYr/OefldJ3/6Ok4SCk3OZWG2ljFeHh2htIoH
Pvq8OKapVTp+PFuQA8XpKkpztwvCkGatDYsIDZvF7wN67GiIn4gl/mZl95z7gKul
AaPNViipMS+HKhmkE+5kAL7HYfdRMAXhTMzc4QIDAQABo4GiMIGfMAkGA1UdEwQC
MAAwHQYDVR0OBBYEFP1StIo7J6l0kB6OLd+p2Az9pA+kMFEGA1UdIwRKMEiAFBFG
78Fihby/kF6IYz+e4lQJAdrKoRqkGDAWMRQwEgYDVQQDDAtFYXN5LVJTQSBDQYIU
SDFp+CyM1oHfthc/waVH0F+iG7gwEwYDVR0lBAwwCgYIKwYBBQUHAwIwCwYDVR0P
BAQDAgeAMA0GCSqGSIb3DQEBCwUAA4IBAQABFQFzgVDVebV3WKSg7SIqZ2LORg9u
OXtYjnT1odtSr7J3o2ZUHW49snCjjYmljFzp3bc2xtBRzBU9fNfF2gIEABJz6knv
P9W/EPx0XTv32QedgxC5pgMIo5of4c+atzJQlV4BpLxk45zcVXuM1X7pgmOj8WfE
zGGreMstd+w98eFLYGXaQ+dwEgTkqskaEyQCVGdlbBC863MZ3/ntP4ingqsGXZs5
z1yrfzf7Y5iE+HZhTrg2CyRynITskmG5p57qrXRYOgGvLTOTUSY7BY4oQdPuQudz
8OHmNct76/WwIglTTuhjtozzu6Ape9a9oJu62CSX+gKyDooGiP7GhFen
-----END CERTIFICATE-----
